; Function Attrs: mustprogress nounwind uwtable
define dso_local void @_ZNK4llvm29BlockFrequencyInfoWrapperPass5printERNS_11raw_ostreamEPKNS_6ModuleE(ptr nocapture noundef nonnull readonly align 8 dereferenceable(40) %0, ptr noundef nonnull align 8 dereferenceable(48) %1, ptr nocapture readnone %2) unnamed_addr #0 align 2 {
  %4 = getelementptr inbounds nuw i8, ptr %0, i64 32
  %5 = load ptr, ptr %4, align 8
  %.not.i = icmp eq ptr %5, null
  br i1 %.not.i, label %_ZNK4llvm18BlockFrequencyInfo5printERNS_11raw_ostreamE.exit, label %6

6:                                                ; preds = %3
  %7 = load ptr, ptr %5, align 8
  %8 = getelementptr inbounds i8, ptr %7, i64 24
  %9 = load ptr, ptr %8, align 8
  %10 = tail call noundef nonnull align 8 dereferenceable(48) ptr %9(ptr noundef nonnull align 8 dereferenceable(184) %5, ptr noundef nonnull align 8 dereferenceable(48) %1) #23
  br label %_ZNK4llvm18BlockFrequencyInfo5printERNS_11raw_ostreamE.exit

_ZNK4llvm18BlockFrequencyInfo5printERNS_11raw_ostreamE.exit: ; preds = %3, %6
  ret void
}